target datalayout = "e-m:e-p270:32:32-p271:32:32-p272:64:64-i64:64-i128:128-f80:128-n8:16:32:64-S128"
target triple = "x86_64-pc-linux-gnu"

@.str.79 = private unnamed_addr constant [18 x i8] c"account no assocs\00", align 1
@.str.80 = private unnamed_addr constant [17 x i8] c"account no users\00", align 1
@.str.81 = private unnamed_addr constant [15 x i8] c"user no assocs\00", align 1
@.str.82 = private unnamed_addr constant [12 x i8] c"user no uid\00", align 1

; Function Attrs: nounwind uwtable
define dso_local zeroext i16 @str_2_slurmdb_problem(ptr noundef %0) #0 {
  %2 = alloca i16, align 2
  %3 = alloca ptr, align 8
  %4 = alloca i16, align 2
  %5 = alloca i32, align 4
  store ptr %0, ptr %3, align 8
  call void @llvm.lifetime.start.p0(i64 2, ptr %4) #10
  store i16 0, ptr %4, align 2
  %6 = load ptr, ptr %3, align 8
  %7 = icmp ne ptr %6, null
  br i1 %7, label %10, label %8

8:                                                ; preds = %1
  %9 = load i16, ptr %4, align 2
  store i16 %9, ptr %2, align 2
  store i32 1, ptr %5, align 4
  br label %35

10:                                               ; preds = %1
  %11 = load ptr, ptr %3, align 8
  %12 = call ptr @xstrcasestr(ptr noundef %11, ptr noundef @.str.79)
  %13 = icmp ne ptr %12, null
  br i1 %13, label %14, label %15

14:                                               ; preds = %10
  store i16 3, ptr %4, align 2
  br label %33

15:                                               ; preds = %10
  %16 = load ptr, ptr %3, align 8
  %17 = call ptr @xstrcasestr(ptr noundef %16, ptr noundef @.str.80)
  %18 = icmp ne ptr %17, null
  br i1 %18, label %19, label %20

19:                                               ; preds = %15
  store i16 2, ptr %4, align 2
  br label %32

20:                                               ; preds = %15
  %21 = load ptr, ptr %3, align 8
  %22 = call ptr @xstrcasestr(ptr noundef %21, ptr noundef @.str.81)
  %23 = icmp ne ptr %22, null
  br i1 %23, label %24, label %25

24:                                               ; preds = %20
  store i16 3, ptr %4, align 2
  br label %31

25:                                               ; preds = %20
  %26 = load ptr, ptr %3, align 8
  %27 = call ptr @xstrcasestr(ptr noundef %26, ptr noundef @.str.82)
  %28 = icmp ne ptr %27, null
  br i1 %28, label %29, label %30

29:                                               ; preds = %25
  store i16 4, ptr %4, align 2
  br label %30

30:                                               ; preds = %29, %25
  br label %31

31:                                               ; preds = %30, %24
  br label %32

32:                                               ; preds = %31, %19
  br label %33

33:                                               ; preds = %32, %14
  %34 = load i16, ptr %4, align 2
  store i16 %34, ptr %2, align 2
  store i32 1, ptr %5, align 4
  br label %35

35:                                               ; preds = %33, %8
  call void @llvm.lifetime.end.p0(i64 2, ptr %4) #10
  %36 = load i16, ptr %2, align 2
  ret i16 %36
}