; Function Attrs: nounwind uwtable
define dso_local zeroext range(i16 0, 5) i16 @str_2_slurmdb_problem(ptr noundef %0) local_unnamed_addr #0 {
  %.not = icmp eq ptr %0, null
  br i1 %.not, label %10, label %2

2:                                                ; preds = %1
  %3 = tail call ptr @xstrcasestr(ptr noundef nonnull %0, ptr noundef nonnull @.str.79) #19
  %.not9 = icmp eq ptr %3, null
  br i1 %.not9, label %4, label %10

4:                                                ; preds = %2
  %5 = tail call ptr @xstrcasestr(ptr noundef nonnull %0, ptr noundef nonnull @.str.80) #19
  %.not10 = icmp eq ptr %5, null
  br i1 %.not10, label %6, label %10

6:                                                ; preds = %4
  %7 = tail call ptr @xstrcasestr(ptr noundef nonnull %0, ptr noundef nonnull @.str.81) #19
  %.not11 = icmp eq ptr %7, null
  br i1 %.not11, label %8, label %10

8:                                                ; preds = %6
  %9 = tail call ptr @xstrcasestr(ptr noundef nonnull %0, ptr noundef nonnull @.str.82) #19
  %.not12 = icmp eq ptr %9, null
  %spec.select = select i1 %.not12, i16 0, i16 4
  br label %10

10:                                               ; preds = %8, %2, %4, %6, %1
  %.07 = phi i16 [ 0, %1 ], [ 3, %2 ], [ 2, %4 ], [ 3, %6 ], [ %spec.select, %8 ]
  ret i16 %.07
}